; Function Attrs: mustprogress nofree norecurse nosync nounwind willreturn memory(argmem: readwrite) uwtable
define noundef i32 @_ZNK6icu_7718DateIntervalFormat10getContextE19UDisplayContextTypeR10UErrorCode(ptr noundef nonnull readonly align 8 captures(none) dereferenceable(1596) %0, i32 noundef %1, ptr noundef nonnull align 4 captures(none) dereferenceable(4) %2) unnamed_addr #11 align 2 {
  %4 = load i32, ptr %2, align 4, !tbaa !13
  %5 = icmp slt i32 %4, 1
  br i1 %5, label %6, label %11

6:                                                ; preds = %3
  %.not4 = icmp eq i32 %1, 1
  br i1 %.not4, label %8, label %7

7:                                                ; preds = %6
  store i32 1, ptr %2, align 4, !tbaa !13
  br label %11

8:                                                ; preds = %6
  %9 = getelementptr inbounds nuw i8, ptr %0, i64 1592
  %10 = load i32, ptr %9, align 8, !tbaa !35
  br label %11

11:                                               ; preds = %3, %8, %7
  %.0 = phi i32 [ 0, %7 ], [ %10, %8 ], [ 0, %3 ]
  ret i32 %.0
}